target datalayout = "e-m:e-p270:32:32-p271:32:32-p272:64:64-i64:64-i128:128-f80:128-n8:16:32:64-S128"
target triple = "x86_64-pc-linux-gnu"

%struct.MqcState = type { ptr, ptr, i32, i32, i32, [19 x i8], i32 }

; Function Attrs: nounwind uwtable
define internal void @bytein(ptr noundef %0) #0 {
  %2 = alloca ptr, align 8
  store ptr %0, ptr %2, align 8, !tbaa !4
  %3 = load ptr, ptr %2, align 8, !tbaa !4
  %4 = getelementptr inbounds nuw %struct.MqcState, ptr %3, i32 0, i32 0
  %5 = load ptr, ptr %4, align 8, !tbaa !15
  %6 = load i8, ptr %5, align 1, !tbaa !16
  %7 = zext i8 %6 to i32
  %8 = icmp eq i32 %7, 255
  br i1 %8, label %9, label %39

9:                                                ; preds = %1
  %10 = load ptr, ptr %2, align 8, !tbaa !4
  %11 = getelementptr inbounds nuw %struct.MqcState, ptr %10, i32 0, i32 0
  %12 = load ptr, ptr %11, align 8, !tbaa !15
  %13 = getelementptr inbounds i8, ptr %12, i64 1
  %14 = load i8, ptr %13, align 1, !tbaa !16
  %15 = zext i8 %14 to i32
  %16 = icmp sgt i32 %15, 143
  br i1 %16, label %17, label %22

17:                                               ; preds = %9
  %18 = load ptr, ptr %2, align 8, !tbaa !4
  %19 = getelementptr inbounds nuw %struct.MqcState, ptr %18, i32 0, i32 3
  %20 = load i32, ptr %19, align 4, !tbaa !17
  %21 = add i32 %20, 1
  store i32 %21, ptr %19, align 4, !tbaa !17
  br label %38

22:                                               ; preds = %9
  %23 = load ptr, ptr %2, align 8, !tbaa !4
  %24 = getelementptr inbounds nuw %struct.MqcState, ptr %23, i32 0, i32 0
  %25 = load ptr, ptr %24, align 8, !tbaa !15
  %26 = getelementptr inbounds nuw i8, ptr %25, i32 1
  store ptr %26, ptr %24, align 8, !tbaa !15
  %27 = load ptr, ptr %2, align 8, !tbaa !4
  %28 = getelementptr inbounds nuw %struct.MqcState, ptr %27, i32 0, i32 0
  %29 = load ptr, ptr %28, align 8, !tbaa !15
  %30 = load i8, ptr %29, align 1, !tbaa !16
  %31 = zext i8 %30 to i32
  %32 = shl i32 %31, 9
  %33 = sub nsw i32 65026, %32
  %34 = load ptr, ptr %2, align 8, !tbaa !4
  %35 = getelementptr inbounds nuw %struct.MqcState, ptr %34, i32 0, i32 3
  %36 = load i32, ptr %35, align 4, !tbaa !17
  %37 = add i32 %36, %33
  store i32 %37, ptr %35, align 4, !tbaa !17
  br label %38

38:                                               ; preds = %22, %17
  br label %55

39:                                               ; preds = %1
  %40 = load ptr, ptr %2, align 8, !tbaa !4
  %41 = getelementptr inbounds nuw %struct.MqcState, ptr %40, i32 0, i32 0
  %42 = load ptr, ptr %41, align 8, !tbaa !15
  %43 = getelementptr inbounds nuw i8, ptr %42, i32 1
  store ptr %43, ptr %41, align 8, !tbaa !15
  %44 = load ptr, ptr %2, align 8, !tbaa !4
  %45 = getelementptr inbounds nuw %struct.MqcState, ptr %44, i32 0, i32 0
  %46 = load ptr, ptr %45, align 8, !tbaa !15
  %47 = load i8, ptr %46, align 1, !tbaa !16
  %48 = zext i8 %47 to i32
  %49 = shl i32 %48, 8
  %50 = sub nsw i32 65281, %49
  %51 = load ptr, ptr %2, align 8, !tbaa !4
  %52 = getelementptr inbounds nuw %struct.MqcState, ptr %51, i32 0, i32 3
  %53 = load i32, ptr %52, align 4, !tbaa !17
  %54 = add i32 %53, %50
  store i32 %54, ptr %52, align 4, !tbaa !17
  br label %55

55:                                               ; preds = %39, %38
  ret void
}

; Function Attrs: nounwind uwtable
define void @ff_mqc_initdec(ptr noundef %0, ptr noundef %1, i32 noundef %2, i32 noundef %3) #0 {
  %5 = alloca ptr, align 8
  %6 = alloca ptr, align 8
  %7 = alloca i32, align 4
  %8 = alloca i32, align 4
  store ptr %0, ptr %5, align 8, !tbaa !4
  store ptr %1, ptr %6, align 8, !tbaa !9
  store i32 %2, ptr %7, align 4, !tbaa !11
  store i32 %3, ptr %8, align 4, !tbaa !11
  %9 = load i32, ptr %7, align 4, !tbaa !11
  %10 = load ptr, ptr %5, align 8, !tbaa !4
  %11 = getelementptr inbounds nuw %struct.MqcState, ptr %10, i32 0, i32 6
  store i32 %9, ptr %11, align 8, !tbaa !13
  %12 = load i32, ptr %8, align 4, !tbaa !11
  %13 = icmp ne i32 %12, 0
  br i1 %13, label %14, label %16

14:                                               ; preds = %4
  %15 = load ptr, ptr %5, align 8, !tbaa !4
  call void @ff_mqc_init_contexts(ptr noundef %15)
  br label %16

16:                                               ; preds = %14, %4
  %17 = load ptr, ptr %6, align 8, !tbaa !9
  %18 = load ptr, ptr %5, align 8, !tbaa !4
  %19 = getelementptr inbounds nuw %struct.MqcState, ptr %18, i32 0, i32 0
  store ptr %17, ptr %19, align 8, !tbaa !15
  %20 = load ptr, ptr %5, align 8, !tbaa !4
  %21 = getelementptr inbounds nuw %struct.MqcState, ptr %20, i32 0, i32 0
  %22 = load ptr, ptr %21, align 8, !tbaa !15
  %23 = load i8, ptr %22, align 1, !tbaa !16
  %24 = zext i8 %23 to i32
  %25 = xor i32 %24, 255
  %26 = shl i32 %25, 16
  %27 = load ptr, ptr %5, align 8, !tbaa !4
  %28 = getelementptr inbounds nuw %struct.MqcState, ptr %27, i32 0, i32 3
  store i32 %26, ptr %28, align 4, !tbaa !17
  %29 = load ptr, ptr %5, align 8, !tbaa !4
  call void @bytein(ptr noundef %29)
  %30 = load ptr, ptr %5, align 8, !tbaa !4
  %31 = getelementptr inbounds nuw %struct.MqcState, ptr %30, i32 0, i32 3
  %32 = load i32, ptr %31, align 4, !tbaa !17
  %33 = shl i32 %32, 7
  %34 = load ptr, ptr %5, align 8, !tbaa !4
  %35 = getelementptr inbounds nuw %struct.MqcState, ptr %34, i32 0, i32 3
  store i32 %33, ptr %35, align 4, !tbaa !17
  %36 = load ptr, ptr %5, align 8, !tbaa !4
  %37 = getelementptr inbounds nuw %struct.MqcState, ptr %36, i32 0, i32 2
  store i32 32768, ptr %37, align 8, !tbaa !18
  ret void
}