; Function Attrs: nounwind uwtable
define void @ff_mqc_initdec(ptr noundef initializes((48, 52)) %0, ptr noundef %1, i32 noundef %2, i32 noundef %3) local_unnamed_addr #0 {
  %5 = getelementptr inbounds nuw i8, ptr %0, i64 48
  store i32 %2, ptr %5, align 8, !tbaa !4
  %.not = icmp eq i32 %3, 0
  br i1 %.not, label %7, label %6

6:                                                ; preds = %4
  tail call void @ff_mqc_init_contexts(ptr noundef nonnull %0) #3
  br label %7

7:                                                ; preds = %6, %4
  store ptr %1, ptr %0, align 8, !tbaa !11
  %8 = load i8, ptr %1, align 1, !tbaa !12
  %9 = xor i8 %8, -1
  %10 = zext i8 %9 to i32
  %11 = shl nuw nsw i32 %10, 16
  %12 = getelementptr inbounds nuw i8, ptr %0, i64 20
  store i32 %11, ptr %12, align 4, !tbaa !13
  %13 = load i8, ptr %1, align 1, !tbaa !12
  %14 = icmp eq i8 %13, -1
  %15 = getelementptr inbounds nuw i8, ptr %1, i64 1
  br i1 %14, label %16, label %26

16:                                               ; preds = %7
  %17 = load i8, ptr %15, align 1, !tbaa !12
  %18 = icmp ugt i8 %17, -113
  br i1 %18, label %19, label %21

19:                                               ; preds = %16
  %20 = or disjoint i32 %11, 1
  br label %bytein.exit

21:                                               ; preds = %16
  store ptr %15, ptr %0, align 8, !tbaa !11
  %22 = load i8, ptr %15, align 1, !tbaa !12
  %23 = zext i8 %22 to i32
  %reass.sub9.i = or disjoint i32 %11, 65026
  %24 = shl nuw nsw i32 %23, 9
  %25 = sub nsw i32 %reass.sub9.i, %24
  br label %bytein.exit

26:                                               ; preds = %7
  store ptr %15, ptr %0, align 8, !tbaa !11
  %27 = load i8, ptr %15, align 1, !tbaa !12
  %28 = zext i8 %27 to i32
  %reass.sub.i = or disjoint i32 %11, 65281
  %29 = shl nuw nsw i32 %28, 8
  %30 = sub nuw nsw i32 %reass.sub.i, %29
  br label %bytein.exit

bytein.exit:                                      ; preds = %19, %21, %26
  %31 = phi i32 [ %20, %19 ], [ %25, %21 ], [ %30, %26 ]
  %32 = shl nsw i32 %31, 7
  store i32 %32, ptr %12, align 4, !tbaa !13
  %33 = getelementptr inbounds nuw i8, ptr %0, i64 16
  store i32 32768, ptr %33, align 8, !tbaa !14
  ret void
}